target datalayout = "e-m:e-p270:32:32-p271:32:32-p272:64:64-i64:64-i128:128-f80:128-n8:16:32:64-S128"
target triple = "x86_64-pc-linux-gnu"

%"struct.vcpkg::Hash::Hasher" = type { ptr }
%"struct.vcpkg::Hash::(anonymous namespace)::ShaHasher.26" = type { %"struct.vcpkg::Hash::Hasher", %"struct.vcpkg::Hash::(anonymous namespace)::Sha512Algorithm", %"struct.std::array.27", i64, %"struct.vcpkg::UInt128" }
%"struct.vcpkg::Hash::(anonymous namespace)::Sha512Algorithm" = type { [8 x i64] }
%"struct.std::array.27" = type { [128 x i8] }
%"struct.vcpkg::UInt128" = type { i64, i64 }

; Function Attrs: noreturn nounwind uwtable
define linkonce_odr hidden void @__clang_call_terminate(ptr noundef %0) #3 comdat {
  %2 = call ptr @__cxa_begin_catch(ptr %0) #16
  call void @_ZSt9terminatev() #17
  unreachable
}

; Function Attrs: mustprogress nounwind uwtable
define linkonce_odr dso_local void @_ZN5vcpkg7UInt128C2Em(ptr noundef nonnull align 8 dereferenceable(16) %0, i64 noundef %1) unnamed_addr #0 comdat align 2 {
  %3 = alloca ptr, align 8
  %4 = alloca i64, align 8
  store ptr %0, ptr %3, align 8
  store i64 %1, ptr %4, align 8
  %5 = load ptr, ptr %3, align 8
  %6 = getelementptr inbounds %"struct.vcpkg::UInt128", ptr %5, i32 0, i32 0
  %7 = load i64, ptr %4, align 8
  store i64 %7, ptr %6, align 8
  %8 = getelementptr inbounds %"struct.vcpkg::UInt128", ptr %5, i32 0, i32 1
  store i64 0, ptr %8, align 8
  ret void
}

; Function Attrs: mustprogress nounwind uwtable
define internal void @_ZN5vcpkg4Hash12_GLOBAL__N_115Sha512Algorithm5clearEv(ptr noundef nonnull align 8 dereferenceable(64) %0) #0 align 2 {
  %2 = alloca ptr, align 8
  store ptr %0, ptr %2, align 8
  %3 = load ptr, ptr %2, align 8
  %4 = getelementptr inbounds %"struct.vcpkg::Hash::(anonymous namespace)::Sha512Algorithm", ptr %3, i32 0, i32 0
  %5 = getelementptr inbounds [8 x i64], ptr %4, i64 0, i64 0
  store i64 7640891576956012808, ptr %5, align 8
  %6 = getelementptr inbounds %"struct.vcpkg::Hash::(anonymous namespace)::Sha512Algorithm", ptr %3, i32 0, i32 0
  %7 = getelementptr inbounds [8 x i64], ptr %6, i64 0, i64 1
  store i64 -4942790177534073029, ptr %7, align 8
  %8 = getelementptr inbounds %"struct.vcpkg::Hash::(anonymous namespace)::Sha512Algorithm", ptr %3, i32 0, i32 0
  %9 = getelementptr inbounds [8 x i64], ptr %8, i64 0, i64 2
  store i64 4354685564936845355, ptr %9, align 8
  %10 = getelementptr inbounds %"struct.vcpkg::Hash::(anonymous namespace)::Sha512Algorithm", ptr %3, i32 0, i32 0
  %11 = getelementptr inbounds [8 x i64], ptr %10, i64 0, i64 3
  store i64 -6534734903238641935, ptr %11, align 8
  %12 = getelementptr inbounds %"struct.vcpkg::Hash::(anonymous namespace)::Sha512Algorithm", ptr %3, i32 0, i32 0
  %13 = getelementptr inbounds [8 x i64], ptr %12, i64 0, i64 4
  store i64 5840696475078001361, ptr %13, align 8
  %14 = getelementptr inbounds %"struct.vcpkg::Hash::(anonymous namespace)::Sha512Algorithm", ptr %3, i32 0, i32 0
  %15 = getelementptr inbounds [8 x i64], ptr %14, i64 0, i64 5
  store i64 -7276294671716946913, ptr %15, align 8
  %16 = getelementptr inbounds %"struct.vcpkg::Hash::(anonymous namespace)::Sha512Algorithm", ptr %3, i32 0, i32 0
  %17 = getelementptr inbounds [8 x i64], ptr %16, i64 0, i64 6
  store i64 2270897969802886507, ptr %17, align 8
  %18 = getelementptr inbounds %"struct.vcpkg::Hash::(anonymous namespace)::Sha512Algorithm", ptr %3, i32 0, i32 0
  %19 = getelementptr inbounds [8 x i64], ptr %18, i64 0, i64 7
  store i64 6620516959819538809, ptr %19, align 8
  ret void
}

; Function Attrs: mustprogress nounwind uwtable
define internal void @_ZN5vcpkg4Hash12_GLOBAL__N_19ShaHasherINS1_15Sha512AlgorithmEE5clearEv(ptr noundef nonnull align 8 dereferenceable(224) %0) unnamed_addr #0 align 2 personality ptr @__gxx_personality_v0 {
  %2 = alloca ptr, align 8
  %3 = alloca %"struct.vcpkg::UInt128", align 8
  store ptr %0, ptr %2, align 8
  %4 = load ptr, ptr %2, align 8
  %5 = getelementptr inbounds %"struct.vcpkg::Hash::(anonymous namespace)::ShaHasher.26", ptr %4, i32 0, i32 1
  call void @_ZN5vcpkg4Hash12_GLOBAL__N_115Sha512Algorithm5clearEv(ptr noundef nonnull align 8 dereferenceable(64) %5) #16
  %6 = getelementptr inbounds %"struct.vcpkg::Hash::(anonymous namespace)::ShaHasher.26", ptr %4, i32 0, i32 3
  store i64 0, ptr %6, align 8
  invoke void @_ZN5vcpkg7UInt128C2Em(ptr noundef nonnull align 8 dereferenceable(16) %3, i64 noundef 0)
          to label %7 unwind label %9

7:                                                ; preds = %1
  %8 = getelementptr inbounds %"struct.vcpkg::Hash::(anonymous namespace)::ShaHasher.26", ptr %4, i32 0, i32 4
  call void @llvm.memcpy.p0.p0.i64(ptr align 8 %8, ptr align 8 %3, i64 16, i1 false)
  ret void

9:                                                ; preds = %1
  %10 = landingpad { ptr, i32 }
          catch ptr null
  %11 = extractvalue { ptr, i32 } %10, 0
  call void @__clang_call_terminate(ptr %11) #17
  unreachable
}