; Function Attrs: mustprogress nofree norecurse nosync nounwind willreturn memory(argmem: write) uwtable
define internal void @_ZN5vcpkg4Hash12_GLOBAL__N_19ShaHasherINS1_15Sha512AlgorithmEE5clearEv(ptr nocapture noundef nonnull writeonly align 8 dereferenceable(224) %0) unnamed_addr #12 align 2 personality ptr @__gxx_personality_v0 {
  %2 = getelementptr inbounds i8, ptr %0, i64 8
  store i64 7640891576956012808, ptr %2, align 8
  %3 = getelementptr inbounds i8, ptr %0, i64 16
  store i64 -4942790177534073029, ptr %3, align 8
  %4 = getelementptr inbounds i8, ptr %0, i64 24
  store i64 4354685564936845355, ptr %4, align 8
  %5 = getelementptr inbounds i8, ptr %0, i64 32
  store i64 -6534734903238641935, ptr %5, align 8
  %6 = getelementptr inbounds i8, ptr %0, i64 40
  store i64 5840696475078001361, ptr %6, align 8
  %7 = getelementptr inbounds i8, ptr %0, i64 48
  store i64 -7276294671716946913, ptr %7, align 8
  %8 = getelementptr inbounds i8, ptr %0, i64 56
  store i64 2270897969802886507, ptr %8, align 8
  %9 = getelementptr inbounds i8, ptr %0, i64 64
  store i64 6620516959819538809, ptr %9, align 8
  %10 = getelementptr inbounds i8, ptr %0, i64 200
  tail call void @llvm.memset.p0.i64(ptr noundef nonnull align 8 dereferenceable(24) %10, i8 0, i64 24, i1 false)
  ret void
}